; Function Attrs: nounwind uwtable
define dso_local void @Curl_conn_free(ptr noundef %0, ptr noundef %1) local_unnamed_addr #0 {
.critedge:
  tail call void @Curl_conn_cf_discard_all(ptr noundef %0, ptr noundef %1, i32 noundef 0) #12
  tail call void @Curl_conn_cf_discard_all(ptr noundef %0, ptr noundef %1, i32 noundef 1) #12
  %2 = getelementptr inbounds nuw i8, ptr %1, i64 88
  tail call void @Curl_free_idnconverted_hostname(ptr noundef nonnull %2) #12
  %3 = getelementptr inbounds nuw i8, ptr %1, i64 136
  tail call void @Curl_free_idnconverted_hostname(ptr noundef nonnull %3) #12
  %4 = getelementptr inbounds nuw i8, ptr %1, i64 224
  tail call void @Curl_free_idnconverted_hostname(ptr noundef nonnull %4) #12
  %5 = getelementptr inbounds nuw i8, ptr %1, i64 168
  tail call void @Curl_free_idnconverted_hostname(ptr noundef nonnull %5) #12
  %6 = load ptr, ptr @Curl_cfree, align 8, !tbaa !4
  %7 = getelementptr inbounds nuw i8, ptr %1, i64 264
  %8 = load ptr, ptr %7, align 8, !tbaa !171
  tail call void %6(ptr noundef %8) #12
  store ptr null, ptr %7, align 8, !tbaa !171
  %9 = load ptr, ptr @Curl_cfree, align 8, !tbaa !4
  %10 = getelementptr inbounds nuw i8, ptr %1, i64 208
  %11 = load ptr, ptr %10, align 8, !tbaa !180
  tail call void %9(ptr noundef %11) #12
  store ptr null, ptr %10, align 8, !tbaa !180
  %12 = load ptr, ptr @Curl_cfree, align 8, !tbaa !4
  %13 = getelementptr inbounds nuw i8, ptr %1, i64 272
  %14 = load ptr, ptr %13, align 8, !tbaa !181
  tail call void %12(ptr noundef %14) #12
  store ptr null, ptr %13, align 8, !tbaa !181
  %15 = load ptr, ptr @Curl_cfree, align 8, !tbaa !4
  %16 = getelementptr inbounds nuw i8, ptr %1, i64 216
  %17 = load ptr, ptr %16, align 8, !tbaa !182
  tail call void %15(ptr noundef %17) #12
  store ptr null, ptr %16, align 8, !tbaa !182
  %18 = load ptr, ptr @Curl_cfree, align 8, !tbaa !4
  %19 = load ptr, ptr %4, align 8, !tbaa !183
  tail call void %18(ptr noundef %19) #12
  store ptr null, ptr %4, align 8, !tbaa !183
  %20 = load ptr, ptr @Curl_cfree, align 8, !tbaa !4
  %21 = load ptr, ptr %5, align 8, !tbaa !184
  tail call void %20(ptr noundef %21) #12
  store ptr null, ptr %5, align 8, !tbaa !184
  %22 = load ptr, ptr @Curl_cfree, align 8, !tbaa !4
  %23 = getelementptr inbounds nuw i8, ptr %1, i64 480
  %24 = load ptr, ptr %23, align 8, !tbaa !185
  tail call void %22(ptr noundef %24) #12
  store ptr null, ptr %23, align 8, !tbaa !185
  %25 = load ptr, ptr @Curl_cfree, align 8, !tbaa !4
  %26 = getelementptr inbounds nuw i8, ptr %1, i64 488
  %27 = load ptr, ptr %26, align 8, !tbaa !186
  tail call void %25(ptr noundef %27) #12
  store ptr null, ptr %26, align 8, !tbaa !186
  %28 = load ptr, ptr @Curl_cfree, align 8, !tbaa !4
  %29 = getelementptr inbounds nuw i8, ptr %1, i64 504
  %30 = load ptr, ptr %29, align 8, !tbaa !187
  tail call void %28(ptr noundef %30) #12
  store ptr null, ptr %29, align 8, !tbaa !187
  %31 = load ptr, ptr @Curl_cfree, align 8, !tbaa !4
  %32 = getelementptr inbounds nuw i8, ptr %1, i64 496
  %33 = load ptr, ptr %32, align 8, !tbaa !188
  tail call void %31(ptr noundef %33) #12
  store ptr null, ptr %32, align 8, !tbaa !188
  %34 = load ptr, ptr @Curl_cfree, align 8, !tbaa !4
  %35 = getelementptr inbounds nuw i8, ptr %1, i64 512
  %36 = load ptr, ptr %35, align 8, !tbaa !189
  tail call void %34(ptr noundef %36) #12
  store ptr null, ptr %35, align 8, !tbaa !189
  %37 = load ptr, ptr @Curl_cfree, align 8, !tbaa !4
  %38 = load ptr, ptr %2, align 8, !tbaa !190
  tail call void %37(ptr noundef %38) #12
  store ptr null, ptr %2, align 8, !tbaa !190
  %39 = load ptr, ptr @Curl_cfree, align 8, !tbaa !4
  %40 = load ptr, ptr %3, align 8, !tbaa !191
  tail call void %39(ptr noundef %40) #12
  store ptr null, ptr %3, align 8, !tbaa !191
  %41 = load ptr, ptr @Curl_cfree, align 8, !tbaa !4
  %42 = getelementptr inbounds nuw i8, ptr %1, i64 120
  %43 = load ptr, ptr %42, align 8, !tbaa !192
  tail call void %41(ptr noundef %43) #12
  store ptr null, ptr %42, align 8, !tbaa !192
  %44 = load ptr, ptr @Curl_cfree, align 8, !tbaa !4
  %45 = getelementptr inbounds nuw i8, ptr %1, i64 128
  %46 = load ptr, ptr %45, align 8, !tbaa !193
  tail call void %44(ptr noundef %46) #12
  store ptr null, ptr %45, align 8, !tbaa !193
  %47 = load ptr, ptr @Curl_cfree, align 8, !tbaa !4
  %48 = getelementptr inbounds nuw i8, ptr %1, i64 1336
  %49 = load ptr, ptr %48, align 8, !tbaa !194
  tail call void %47(ptr noundef %49) #12
  store ptr null, ptr %48, align 8, !tbaa !194
  tail call void @Curl_ssl_conn_config_cleanup(ptr noundef %1) #12
  %50 = load ptr, ptr @Curl_cfree, align 8, !tbaa !4
  %51 = getelementptr inbounds nuw i8, ptr %1, i64 56
  %52 = load ptr, ptr %51, align 8, !tbaa !195
  tail call void %50(ptr noundef %52) #12
  store ptr null, ptr %51, align 8, !tbaa !195
  %53 = load ptr, ptr @Curl_cfree, align 8, !tbaa !4
  tail call void %53(ptr noundef %1) #12
  ret void
}